target datalayout = "e-m:e-p270:32:32-p271:32:32-p272:64:64-i64:64-i128:128-f80:128-n8:16:32:64-S128"
target triple = "x86_64-pc-linux-gnu"

%struct.Abc_Ntk_t_ = type { i32, i32, ptr, ptr, ptr, ptr, ptr, ptr, ptr, ptr, ptr, ptr, ptr, [11 x i32], i32, i32, i32, i32, ptr, i32, ptr, ptr, i32, i32, i32, double, i32, %struct.Vec_Int_t_, ptr, ptr, ptr, ptr, ptr, float, i32, ptr, ptr, ptr, ptr, ptr, ptr, ptr, ptr, ptr, ptr, ptr, ptr, ptr, ptr, ptr, ptr, ptr, ptr, ptr, ptr, ptr }
%struct.Vec_Int_t_ = type { i32, i32, ptr }
%struct.Abc_Obj_t_ = type { ptr, ptr, i32, i32, %struct.Vec_Int_t_, %struct.Vec_Int_t_, %union.anon, %union.anon.0 }
%union.anon = type { ptr }
%union.anon.0 = type { ptr }
%struct.Vec_Ptr_t_ = type { i32, i32, ptr }

@.str.7 = private unnamed_addr constant [2 x i8] c"\0A\00", align 1
@.str.80 = private unnamed_addr constant [23 x i8] c"Skipping the PI node.\0A\00", align 1
@.str.81 = private unnamed_addr constant [21 x i8] c"Skipping the latch.\0A\00", align 1
@.str.82 = private unnamed_addr constant [6 x i8] c"%s = \00", align 1
@.str.83 = private unnamed_addr constant [12 x i8] c"Constant %d\00", align 1
@.str.84 = private unnamed_addr constant [2 x i8] c"!\00", align 1
@.str.85 = private unnamed_addr constant [3 x i8] c" +\00", align 1
@.str.86 = private unnamed_addr constant [6 x i8] c" %s%s\00", align 1
@.str.87 = private unnamed_addr constant [1 x i8] zeroinitializer, align 1
@.str.88 = private unnamed_addr constant [6 x i8] c" %s%c\00", align 1

; Function Attrs: nounwind uwtable
define internal ptr @Vec_PtrEntry(ptr noundef %0, i32 noundef %1) #0 {
  %3 = alloca ptr, align 8
  %4 = alloca i32, align 4
  store ptr %0, ptr %3, align 8
  store i32 %1, ptr %4, align 4
  %5 = load ptr, ptr %3, align 8
  %6 = getelementptr inbounds %struct.Vec_Ptr_t_, ptr %5, i32 0, i32 2
  %7 = load ptr, ptr %6, align 8
  %8 = load i32, ptr %4, align 4
  %9 = sext i32 %8 to i64
  %10 = getelementptr inbounds ptr, ptr %7, i64 %9
  %11 = load ptr, ptr %10, align 8
  ret ptr %11
}

; Function Attrs: nounwind uwtable
define internal i32 @Abc_ObjIsLatch(ptr noundef %0) #0 {
  %2 = alloca ptr, align 8
  store ptr %0, ptr %2, align 8
  %3 = load ptr, ptr %2, align 8
  %4 = getelementptr inbounds %struct.Abc_Obj_t_, ptr %3, i32 0, i32 3
  %5 = load i32, ptr %4, align 4
  %6 = and i32 %5, 15
  %7 = icmp eq i32 %6, 8
  %8 = zext i1 %7 to i32
  ret i32 %8
}

; Function Attrs: nounwind uwtable
define internal i32 @Abc_ObjIsPi(ptr noundef %0) #0 {
  %2 = alloca ptr, align 8
  store ptr %0, ptr %2, align 8
  %3 = load ptr, ptr %2, align 8
  %4 = getelementptr inbounds %struct.Abc_Obj_t_, ptr %3, i32 0, i32 3
  %5 = load i32, ptr %4, align 4
  %6 = and i32 %5, 15
  %7 = icmp eq i32 %6, 2
  %8 = zext i1 %7 to i32
  ret i32 %8
}

; Function Attrs: nounwind uwtable
define internal ptr @Abc_ObjFanin0(ptr noundef %0) #0 {
  %2 = alloca ptr, align 8
  store ptr %0, ptr %2, align 8
  %3 = load ptr, ptr %2, align 8
  %4 = getelementptr inbounds %struct.Abc_Obj_t_, ptr %3, i32 0, i32 0
  %5 = load ptr, ptr %4, align 8
  %6 = getelementptr inbounds %struct.Abc_Ntk_t_, ptr %5, i32 0, i32 5
  %7 = load ptr, ptr %6, align 8
  %8 = getelementptr inbounds %struct.Vec_Ptr_t_, ptr %7, i32 0, i32 2
  %9 = load ptr, ptr %8, align 8
  %10 = load ptr, ptr %2, align 8
  %11 = getelementptr inbounds %struct.Abc_Obj_t_, ptr %10, i32 0, i32 4
  %12 = getelementptr inbounds %struct.Vec_Int_t_, ptr %11, i32 0, i32 2
  %13 = load ptr, ptr %12, align 8
  %14 = getelementptr inbounds i32, ptr %13, i64 0
  %15 = load i32, ptr %14, align 4
  %16 = sext i32 %15 to i64
  %17 = getelementptr inbounds ptr, ptr %9, i64 %16
  %18 = load ptr, ptr %17, align 8
  ret ptr %18
}

; Function Attrs: nounwind uwtable
define internal i32 @Abc_ObjIsCo(ptr noundef %0) #0 {
  %2 = alloca ptr, align 8
  store ptr %0, ptr %2, align 8
  %3 = load ptr, ptr %2, align 8
  %4 = getelementptr inbounds %struct.Abc_Obj_t_, ptr %3, i32 0, i32 3
  %5 = load i32, ptr %4, align 4
  %6 = and i32 %5, 15
  %7 = icmp eq i32 %6, 3
  br i1 %7, label %14, label %8

8:                                                ; preds = %1
  %9 = load ptr, ptr %2, align 8
  %10 = getelementptr inbounds %struct.Abc_Obj_t_, ptr %9, i32 0, i32 3
  %11 = load i32, ptr %10, align 4
  %12 = and i32 %11, 15
  %13 = icmp eq i32 %12, 4
  br label %14

14:                                               ; preds = %8, %1
  %15 = phi i1 [ true, %1 ], [ %13, %8 ]
  %16 = zext i1 %15 to i32
  ret i32 %16
}

; Function Attrs: nounwind uwtable
define void @Abc_NodePrintSop(ptr noundef %0, ptr noundef %1, i32 noundef %2) #0 {
  %4 = alloca ptr, align 8
  %5 = alloca ptr, align 8
  %6 = alloca i32, align 4
  %7 = alloca ptr, align 8
  %8 = alloca ptr, align 8
  %9 = alloca ptr, align 8
  %10 = alloca ptr, align 8
  %11 = alloca i32, align 4
  store ptr %0, ptr %4, align 8
  store ptr %1, ptr %5, align 8
  store i32 %2, ptr %6, align 4
  store ptr null, ptr %7, align 8
  %12 = load ptr, ptr %5, align 8
  %13 = call i32 @Abc_ObjIsCo(ptr noundef %12)
  %14 = icmp ne i32 %13, 0
  br i1 %14, label %15, label %18

15:                                               ; preds = %3
  %16 = load ptr, ptr %5, align 8
  %17 = call ptr @Abc_ObjFanin0(ptr noundef %16)
  store ptr %17, ptr %5, align 8
  br label %18

18:                                               ; preds = %15, %3
  %19 = load ptr, ptr %5, align 8
  %20 = call i32 @Abc_ObjIsPi(ptr noundef %19)
  %21 = icmp ne i32 %20, 0
  br i1 %21, label %22, label %25

22:                                               ; preds = %18
  %23 = load ptr, ptr %4, align 8
  %24 = call i32 (ptr, ptr, ...) @fprintf(ptr noundef %23, ptr noundef @.str.80) #11
  br label %162

25:                                               ; preds = %18
  %26 = load ptr, ptr %5, align 8
  %27 = call i32 @Abc_ObjIsLatch(ptr noundef %26)
  %28 = icmp ne i32 %27, 0
  br i1 %28, label %29, label %32

29:                                               ; preds = %25
  %30 = load ptr, ptr %4, align 8
  %31 = call i32 (ptr, ptr, ...) @fprintf(ptr noundef %30, ptr noundef @.str.81) #11
  br label %162

32:                                               ; preds = %25
  %33 = load ptr, ptr %5, align 8
  %34 = getelementptr inbounds %struct.Abc_Obj_t_, ptr %33, i32 0, i32 6
  %35 = load ptr, ptr %34, align 8
  store ptr %35, ptr %10, align 8
  %36 = load ptr, ptr %10, align 8
  %37 = call i32 @Abc_SopGetVarNum(ptr noundef %36)
  store i32 %37, ptr %11, align 4
  %38 = load i32, ptr %11, align 4
  %39 = icmp eq i32 %38, 0
  br i1 %39, label %40, label %49

40:                                               ; preds = %32
  %41 = load ptr, ptr %4, align 8
  %42 = load ptr, ptr %5, align 8
  %43 = call ptr @Abc_ObjName(ptr noundef %42)
  %44 = call i32 (ptr, ptr, ...) @fprintf(ptr noundef %41, ptr noundef @.str.82, ptr noundef %43) #11
  %45 = load ptr, ptr %4, align 8
  %46 = load ptr, ptr %10, align 8
  %47 = call i32 @Abc_SopGetPhase(ptr noundef %46)
  %48 = call i32 (ptr, ptr, ...) @fprintf(ptr noundef %45, ptr noundef @.str.83, i32 noundef %47) #11
  br label %162

49:                                               ; preds = %32
  %50 = load ptr, ptr %10, align 8
  %51 = call i32 @Abc_SopGetPhase(ptr noundef %50)
  %52 = icmp ne i32 %51, 0
  br i1 %52, label %56, label %53

53:                                               ; preds = %49
  %54 = load ptr, ptr %4, align 8
  %55 = call i32 (ptr, ptr, ...) @fprintf(ptr noundef %54, ptr noundef @.str.84) #11
  br label %56

56:                                               ; preds = %53, %49
  %57 = load ptr, ptr %4, align 8
  %58 = load ptr, ptr %5, align 8
  %59 = call ptr @Abc_ObjName(ptr noundef %58)
  %60 = call i32 (ptr, ptr, ...) @fprintf(ptr noundef %57, ptr noundef @.str.82, ptr noundef %59) #11
  %61 = load i32, ptr %6, align 4
  %62 = icmp ne i32 %61, 0
  br i1 %62, label %63, label %66

63:                                               ; preds = %56
  %64 = load ptr, ptr %5, align 8
  %65 = call ptr @Abc_NodeGetFaninNames(ptr noundef %64)
  store ptr %65, ptr %7, align 8
  br label %66

66:                                               ; preds = %63, %56
  %67 = load ptr, ptr %10, align 8
  store ptr %67, ptr %8, align 8
  br label %68

68:                                               ; preds = %149, %66
  %69 = load ptr, ptr %8, align 8
  %70 = load i8, ptr %69, align 1
  %71 = icmp ne i8 %70, 0
  br i1 %71, label %72, label %155

72:                                               ; preds = %68
  %73 = load ptr, ptr %8, align 8
  %74 = load ptr, ptr %10, align 8
  %75 = icmp ne ptr %73, %74
  br i1 %75, label %76, label %79

76:                                               ; preds = %72
  %77 = load ptr, ptr %4, align 8
  %78 = call i32 (ptr, ptr, ...) @fprintf(ptr noundef %77, ptr noundef @.str.85) #11
  br label %79

79:                                               ; preds = %76, %72
  %80 = load ptr, ptr %7, align 8
  %81 = icmp ne ptr %80, null
  br i1 %81, label %82, label %115

82:                                               ; preds = %79
  %83 = load ptr, ptr %8, align 8
  store ptr %83, ptr %9, align 8
  br label %84

84:                                               ; preds = %111, %82
  %85 = load ptr, ptr %9, align 8
  %86 = load i8, ptr %85, align 1
  %87 = sext i8 %86 to i32
  %88 = icmp ne i32 %87, 32
  br i1 %88, label %89, label %114

89:                                               ; preds = %84
  %90 = load ptr, ptr %9, align 8
  %91 = load i8, ptr %90, align 1
  %92 = sext i8 %91 to i32
  %93 = icmp ne i32 %92, 45
  br i1 %93, label %94, label %110

94:                                               ; preds = %89
  %95 = load ptr, ptr %4, align 8
  %96 = load ptr, ptr %9, align 8
  %97 = load i8, ptr %96, align 1
  %98 = sext i8 %97 to i32
  %99 = icmp eq i32 %98, 48
  %100 = select i1 %99, ptr @.str.84, ptr @.str.87
  %101 = load ptr, ptr %7, align 8
  %102 = load ptr, ptr %9, align 8
  %103 = load ptr, ptr %8, align 8
  %104 = ptrtoint ptr %102 to i64
  %105 = ptrtoint ptr %103 to i64
  %106 = sub i64 %104, %105
  %107 = trunc i64 %106 to i32
  %108 = call ptr @Vec_PtrEntry(ptr noundef %101, i32 noundef %107)
  %109 = call i32 (ptr, ptr, ...) @fprintf(ptr noundef %95, ptr noundef @.str.86, ptr noundef %100, ptr noundef %108) #11
  br label %110

110:                                              ; preds = %94, %89
  br label %111

111:                                              ; preds = %110
  %112 = load ptr, ptr %9, align 8
  %113 = getelementptr inbounds i8, ptr %112, i32 1
  store ptr %113, ptr %9, align 8
  br label %84, !llvm.loop !57

114:                                              ; preds = %84
  br label %148

115:                                              ; preds = %79
  %116 = load ptr, ptr %8, align 8
  store ptr %116, ptr %9, align 8
  br label %117

117:                                              ; preds = %144, %115
  %118 = load ptr, ptr %9, align 8
  %119 = load i8, ptr %118, align 1
  %120 = sext i8 %119 to i32
  %121 = icmp ne i32 %120, 32
  br i1 %121, label %122, label %147

122:                                              ; preds = %117
  %123 = load ptr, ptr %9, align 8
  %124 = load i8, ptr %123, align 1
  %125 = sext i8 %124 to i32
  %126 = icmp ne i32 %125, 45
  br i1 %126, label %127, label %143

127:                                              ; preds = %122
  %128 = load ptr, ptr %4, align 8
  %129 = load ptr, ptr %9, align 8
  %130 = load i8, ptr %129, align 1
  %131 = sext i8 %130 to i32
  %132 = icmp eq i32 %131, 48
  %133 = select i1 %132, ptr @.str.84, ptr @.str.87
  %134 = load ptr, ptr %9, align 8
  %135 = getelementptr inbounds i8, ptr %134, i64 97
  %136 = load ptr, ptr %8, align 8
  %137 = ptrtoint ptr %135 to i64
  %138 = ptrtoint ptr %136 to i64
  %139 = sub i64 %137, %138
  %140 = trunc i64 %139 to i8
  %141 = sext i8 %140 to i32
  %142 = call i32 (ptr, ptr, ...) @fprintf(ptr noundef %128, ptr noundef @.str.88, ptr noundef %133, i32 noundef %141) #11
  br label %143

143:                                              ; preds = %127, %122
  br label %144

144:                                              ; preds = %143
  %145 = load ptr, ptr %9, align 8
  %146 = getelementptr inbounds i8, ptr %145, i32 1
  store ptr %146, ptr %9, align 8
  br label %117, !llvm.loop !58

147:                                              ; preds = %117
  br label %148

148:                                              ; preds = %147, %114
  br label %149

149:                                              ; preds = %148
  %150 = load i32, ptr %11, align 4
  %151 = add nsw i32 %150, 3
  %152 = load ptr, ptr %8, align 8
  %153 = sext i32 %151 to i64
  %154 = getelementptr inbounds i8, ptr %152, i64 %153
  store ptr %154, ptr %8, align 8
  br label %68, !llvm.loop !59

155:                                              ; preds = %68
  %156 = load ptr, ptr %4, align 8
  %157 = call i32 (ptr, ptr, ...) @fprintf(ptr noundef %156, ptr noundef @.str.7) #11
  %158 = load ptr, ptr %7, align 8
  %159 = icmp ne ptr %158, null
  br i1 %159, label %160, label %162

160:                                              ; preds = %155
  %161 = load ptr, ptr %7, align 8
  call void @Abc_NodeFreeNames(ptr noundef %161)
  br label %162

162:                                              ; preds = %160, %155, %40, %29, %22
  ret void
}