; Function Attrs: nounwind uwtable
define void @Abc_NodePrintSop(ptr noundef captures(none) %0, ptr noundef %1, i32 noundef %2) local_unnamed_addr #0 {
  %4 = getelementptr i8, ptr %1, i64 20
  %.val66 = load i32, ptr %4, align 4
  %5 = and i32 %.val66, 15
  %6 = add nsw i32 %5, -5
  %narrow.i = icmp ult i32 %6, -2
  br i1 %narrow.i, label %14, label %7

7:                                                ; preds = %3
  %.val = load ptr, ptr %1, align 8
  %8 = getelementptr i8, ptr %1, i64 32
  %.val65 = load ptr, ptr %8, align 8
  %9 = getelementptr i8, ptr %.val, i64 32
  %.val.val = load ptr, ptr %9, align 8
  %.val65.val = load i32, ptr %.val65, align 4
  %10 = getelementptr i8, ptr %.val.val, i64 8
  %.val.val.val = load ptr, ptr %10, align 8
  %11 = sext i32 %.val65.val to i64
  %12 = getelementptr inbounds ptr, ptr %.val.val.val, i64 %11
  %13 = load ptr, ptr %12, align 8
  %.phi.trans.insert = getelementptr i8, ptr %13, i64 20
  %.0.val67.pre = load i32, ptr %.phi.trans.insert, align 4
  br label %14

14:                                               ; preds = %7, %3
  %.0.val67 = phi i32 [ %.0.val67.pre, %7 ], [ %.val66, %3 ]
  %.0 = phi ptr [ %13, %7 ], [ %1, %3 ]
  %15 = and i32 %.0.val67, 15
  switch i32 %15, label %20 [
    i32 2, label %16
    i32 8, label %18
  ]

16:                                               ; preds = %14
  %17 = tail call i64 @fwrite(ptr nonnull @.str.80, i64 22, i64 1, ptr %0)
  br label %84

18:                                               ; preds = %14
  %19 = tail call i64 @fwrite(ptr nonnull @.str.81, i64 20, i64 1, ptr %0)
  br label %84

20:                                               ; preds = %14
  %21 = getelementptr inbounds nuw i8, ptr %.0, i64 56
  %22 = load ptr, ptr %21, align 8
  %23 = tail call i32 @Abc_SopGetVarNum(ptr noundef %22) #19
  %24 = icmp eq i32 %23, 0
  br i1 %24, label %25, label %30

25:                                               ; preds = %20
  %26 = tail call ptr @Abc_ObjName(ptr noundef nonnull %.0) #19
  %27 = tail call i32 (ptr, ptr, ...) @fprintf(ptr noundef %0, ptr noundef nonnull @.str.82, ptr noundef %26) #19
  %28 = tail call i32 @Abc_SopGetPhase(ptr noundef %22) #19
  %29 = tail call i32 (ptr, ptr, ...) @fprintf(ptr noundef %0, ptr noundef nonnull @.str.83, i32 noundef %28) #19
  br label %84

30:                                               ; preds = %20
  %31 = tail call i32 @Abc_SopGetPhase(ptr noundef %22) #19
  %.not54 = icmp eq i32 %31, 0
  br i1 %.not54, label %32, label %33

32:                                               ; preds = %30
  %fputc = tail call i32 @fputc(i32 33, ptr %0)
  br label %33

33:                                               ; preds = %32, %30
  %34 = tail call ptr @Abc_ObjName(ptr noundef nonnull %.0) #19
  %35 = tail call i32 (ptr, ptr, ...) @fprintf(ptr noundef %0, ptr noundef nonnull @.str.82, ptr noundef %34) #19
  %.not55 = icmp eq i32 %2, 0
  br i1 %.not55, label %.thread, label %36

36:                                               ; preds = %33
  %37 = tail call ptr @Abc_NodeGetFaninNames(ptr noundef nonnull %.0) #19
  %38 = freeze ptr %37
  %39 = load i8, ptr %22, align 1
  %.not5672 = icmp eq i8 %39, 0
  br i1 %.not5672, label %._crit_edge, label %.lr.ph

.thread:                                          ; preds = %33
  %40 = load i8, ptr %22, align 1
  %.not567277 = icmp eq i8 %40, 0
  br i1 %.not567277, label %._crit_edge.thread, label %.lr.ph.thread

._crit_edge.thread:                               ; preds = %.thread
  %fputc5784 = tail call i32 @fputc(i32 10, ptr %0)
  br label %84

.lr.ph.thread:                                    ; preds = %.thread
  %41 = sext i32 %23 to i64
  br label %.lr.ph.split.us.preheader

.lr.ph:                                           ; preds = %36
  %.not60 = icmp eq ptr %38, null
  %42 = getelementptr i8, ptr %38, i64 8
  %43 = sext i32 %23 to i64
  br i1 %.not60, label %.lr.ph.split.us.preheader, label %.lr.ph.split

.lr.ph.split.us.preheader:                        ; preds = %.lr.ph.thread, %.lr.ph
  %44 = phi i64 [ %41, %.lr.ph.thread ], [ %43, %.lr.ph ]
  br label %.lr.ph.split.us

.lr.ph.split.us:                                  ; preds = %.lr.ph.split.us.preheader, %.loopexit.us
  %.04873.us = phi ptr [ %62, %.loopexit.us ], [ %22, %.lr.ph.split.us.preheader ]
  %.not59.us = icmp eq ptr %.04873.us, %22
  br i1 %.not59.us, label %.preheader.us, label %45

45:                                               ; preds = %.lr.ph.split.us
  %46 = tail call i64 @fwrite(ptr nonnull @.str.85, i64 2, i64 1, ptr %0)
  br label %.preheader.us

.preheader.us:                                    ; preds = %45, %.lr.ph.split.us
  %47 = ptrtoint ptr %.04873.us to i64
  br label %48

48:                                               ; preds = %.preheader.us, %59
  %.1.us = phi ptr [ %60, %59 ], [ %.04873.us, %.preheader.us ]
  %49 = load i8, ptr %.1.us, align 1
  switch i8 %49, label %50 [
    i8 32, label %.loopexit.us
    i8 45, label %59
  ]

50:                                               ; preds = %48
  %51 = icmp eq i8 %49, 48
  %52 = select i1 %51, ptr @.str.84, ptr @.str.87
  %53 = getelementptr inbounds nuw i8, ptr %.1.us, i64 97
  %54 = ptrtoint ptr %53 to i64
  %55 = sub i64 %54, %47
  %56 = trunc i64 %55 to i32
  %sext.us = shl i32 %56, 24
  %57 = ashr exact i32 %sext.us, 24
  %58 = tail call i32 (ptr, ptr, ...) @fprintf(ptr noundef %0, ptr noundef nonnull @.str.88, ptr noundef nonnull %52, i32 noundef %57) #19
  br label %59

59:                                               ; preds = %50, %48
  %60 = getelementptr inbounds nuw i8, ptr %.1.us, i64 1
  br label %48, !llvm.loop !60

.loopexit.us:                                     ; preds = %48
  %61 = getelementptr i8, ptr %.04873.us, i64 %44
  %62 = getelementptr i8, ptr %61, i64 3
  %63 = load i8, ptr %62, align 1
  %.not56.us = icmp eq i8 %63, 0
  br i1 %.not56.us, label %._crit_edge, label %.lr.ph.split.us, !llvm.loop !61

.lr.ph.split:                                     ; preds = %.lr.ph, %.loopexit71
  %.04873 = phi ptr [ %81, %.loopexit71 ], [ %22, %.lr.ph ]
  %.not59 = icmp eq ptr %.04873, %22
  br i1 %.not59, label %.preheader70, label %64

64:                                               ; preds = %.lr.ph.split
  %65 = tail call i64 @fwrite(ptr nonnull @.str.85, i64 2, i64 1, ptr %0)
  br label %.preheader70

.preheader70:                                     ; preds = %64, %.lr.ph.split
  %66 = ptrtoint ptr %.04873 to i64
  br label %67

67:                                               ; preds = %.preheader70, %78
  %.047 = phi ptr [ %79, %78 ], [ %.04873, %.preheader70 ]
  %68 = load i8, ptr %.047, align 1
  switch i8 %68, label %69 [
    i8 32, label %.loopexit71
    i8 45, label %78
  ]

69:                                               ; preds = %67
  %70 = icmp eq i8 %68, 48
  %71 = select i1 %70, ptr @.str.84, ptr @.str.87
  %72 = ptrtoint ptr %.047 to i64
  %73 = sub i64 %72, %66
  %.046.val = load ptr, ptr %42, align 8
  %sext69 = shl i64 %73, 32
  %74 = ashr exact i64 %sext69, 29
  %75 = getelementptr inbounds i8, ptr %.046.val, i64 %74
  %76 = load ptr, ptr %75, align 8
  %77 = tail call i32 (ptr, ptr, ...) @fprintf(ptr noundef %0, ptr noundef nonnull @.str.86, ptr noundef nonnull %71, ptr noundef %76) #19
  br label %78

78:                                               ; preds = %67, %69
  %79 = getelementptr inbounds nuw i8, ptr %.047, i64 1
  br label %67, !llvm.loop !62

.loopexit71:                                      ; preds = %67
  %80 = getelementptr i8, ptr %.04873, i64 %43
  %81 = getelementptr i8, ptr %80, i64 3
  %82 = load i8, ptr %81, align 1
  %.not56 = icmp eq i8 %82, 0
  br i1 %.not56, label %._crit_edge, label %.lr.ph.split, !llvm.loop !61

._crit_edge:                                      ; preds = %.loopexit71, %.loopexit.us, %36
  %.04679 = phi ptr [ %38, %36 ], [ null, %.loopexit.us ], [ %38, %.loopexit71 ]
  %fputc57 = tail call i32 @fputc(i32 10, ptr %0)
  %.not58 = icmp eq ptr %.04679, null
  br i1 %.not58, label %84, label %83

83:                                               ; preds = %._crit_edge
  tail call void @Abc_NodeFreeNames(ptr noundef nonnull %.04679) #19
  br label %84

84:                                               ; preds = %._crit_edge.thread, %83, %._crit_edge, %25, %18, %16
  ret void
}